target datalayout = "e-m:e-p270:32:32-p271:32:32-p272:64:64-i64:64-i128:128-f80:128-n8:16:32:64-S128"
target triple = "x86_64-unknown-linux-gnu"

%"class.node::MemoryRetainer" = type { ptr }
%struct.ngtcp2_vec = type { ptr, i64 }
%"class.node::quic::RegularToken" = type { %"class.node::MemoryRetainer", [57 x i8], %struct.ngtcp2_vec }

; Function Attrs: mustprogress nounwind uwtable
define linkonce_odr dso_local void @_ZN4node14MemoryRetainerC2Ev(ptr noundef nonnull align 8 dereferenceable(8) %this) unnamed_addr #4 comdat align 2 {
entry:
  %this.addr = alloca ptr, align 8
  store ptr %this, ptr %this.addr, align 8
  %this1 = load ptr, ptr %this.addr, align 8
  store ptr getelementptr inbounds ({ [10 x ptr] }, ptr @_ZTVN4node14MemoryRetainerE, i32 0, i32 0, i32 2), ptr %this1, align 8
  ret void
}

; Function Attrs: mustprogress nounwind uwtable
define dso_local void @_ZN4node4quic12RegularTokenC2Ev(ptr noundef nonnull align 8 dereferenceable(88) %this) unnamed_addr #4 align 2 {
entry:
  %this.addr = alloca ptr, align 8
  store ptr %this, ptr %this.addr, align 8
  %this1 = load ptr, ptr %this.addr, align 8
  call void @_ZN4node14MemoryRetainerC2Ev(ptr noundef nonnull align 8 dereferenceable(8) %this1) #3
  store ptr getelementptr inbounds ({ [10 x ptr] }, ptr @_ZTVN4node4quic12RegularTokenE, i32 0, i32 0, i32 2), ptr %this1, align 8
  %buf_ = getelementptr inbounds %"class.node::quic::RegularToken", ptr %this1, i32 0, i32 1
  call void @llvm.memset.p0.i64(ptr align 8 %buf_, i8 0, i64 57, i1 false)
  %ptr_ = getelementptr inbounds %"class.node::quic::RegularToken", ptr %this1, i32 0, i32 2
  %base = getelementptr inbounds %struct.ngtcp2_vec, ptr %ptr_, i32 0, i32 0
  store ptr null, ptr %base, align 8
  %len = getelementptr inbounds %struct.ngtcp2_vec, ptr %ptr_, i32 0, i32 1
  store i64 0, ptr %len, align 8
  ret void
}