; Function Attrs: mustprogress nofree norecurse nosync nounwind willreturn memory(argmem: write) uwtable
define dso_local void @_ZN4node4quic12RegularTokenC2Ev(ptr nocapture noundef nonnull writeonly align 8 dereferenceable(88) %this) unnamed_addr #8 align 2 {
entry:
  store ptr getelementptr inbounds ({ [10 x ptr] }, ptr @_ZTVN4node4quic12RegularTokenE, i64 0, i32 0, i64 2), ptr %this, align 8
  %buf_ = getelementptr inbounds i8, ptr %this, i64 8
  tail call void @llvm.memset.p0.i64(ptr noundef nonnull align 8 dereferenceable(57) %buf_, i8 0, i64 57, i1 false)
  %ptr_ = getelementptr inbounds i8, ptr %this, i64 72
  tail call void @llvm.memset.p0.i64(ptr noundef nonnull align 8 dereferenceable(16) %ptr_, i8 0, i64 16, i1 false)
  ret void
}